target datalayout = "e-m:e-p270:32:32-p271:32:32-p272:64:64-i64:64-i128:128-f80:128-n8:16:32:64-S128"
target triple = "x86_64-pc-linux-gnu"

%struct.Codebook = type { i32, i32, ptr, float, float, i8, i8, i8, i8, i32, ptr, ptr, [1024 x i16], ptr, ptr, i32 }

; Function Attrs: nounwind uwtable
define i32 @bit_reverse(i32 noundef %0) #0 {
  %2 = alloca i32, align 4
  store i32 %0, ptr %2, align 4, !tbaa !8
  %3 = load i32, ptr %2, align 4, !tbaa !8
  %4 = and i32 %3, -1431655766
  %5 = lshr i32 %4, 1
  %6 = load i32, ptr %2, align 4, !tbaa !8
  %7 = and i32 %6, 1431655765
  %8 = shl i32 %7, 1
  %9 = or i32 %5, %8
  store i32 %9, ptr %2, align 4, !tbaa !8
  %10 = load i32, ptr %2, align 4, !tbaa !8
  %11 = and i32 %10, -858993460
  %12 = lshr i32 %11, 2
  %13 = load i32, ptr %2, align 4, !tbaa !8
  %14 = and i32 %13, 858993459
  %15 = shl i32 %14, 2
  %16 = or i32 %12, %15
  store i32 %16, ptr %2, align 4, !tbaa !8
  %17 = load i32, ptr %2, align 4, !tbaa !8
  %18 = and i32 %17, -252645136
  %19 = lshr i32 %18, 4
  %20 = load i32, ptr %2, align 4, !tbaa !8
  %21 = and i32 %20, 252645135
  %22 = shl i32 %21, 4
  %23 = or i32 %19, %22
  store i32 %23, ptr %2, align 4, !tbaa !8
  %24 = load i32, ptr %2, align 4, !tbaa !8
  %25 = and i32 %24, -16711936
  %26 = lshr i32 %25, 8
  %27 = load i32, ptr %2, align 4, !tbaa !8
  %28 = and i32 %27, 16711935
  %29 = shl i32 %28, 8
  %30 = or i32 %26, %29
  store i32 %30, ptr %2, align 4, !tbaa !8
  %31 = load i32, ptr %2, align 4, !tbaa !8
  %32 = lshr i32 %31, 16
  %33 = load i32, ptr %2, align 4, !tbaa !8
  %34 = shl i32 %33, 16
  %35 = or i32 %32, %34
  ret i32 %35
}

; Function Attrs: nounwind uwtable
define void @add_entry(ptr noundef %0, i32 noundef %1, i32 noundef %2, i32 noundef %3, i32 noundef %4, ptr noundef %5) #0 {
  %7 = alloca ptr, align 8
  %8 = alloca i32, align 4
  %9 = alloca i32, align 4
  %10 = alloca i32, align 4
  %11 = alloca i32, align 4
  %12 = alloca ptr, align 8
  store ptr %0, ptr %7, align 8, !tbaa !18
  store i32 %1, ptr %8, align 4, !tbaa !8
  store i32 %2, ptr %9, align 4, !tbaa !8
  store i32 %3, ptr %10, align 4, !tbaa !8
  store i32 %4, ptr %11, align 4, !tbaa !8
  store ptr %5, ptr %12, align 8, !tbaa !33
  %13 = load ptr, ptr %7, align 8, !tbaa !18
  %14 = getelementptr inbounds nuw %struct.Codebook, ptr %13, i32 0, i32 8
  %15 = load i8, ptr %14, align 1, !tbaa !35
  %16 = icmp ne i8 %15, 0
  br i1 %16, label %25, label %17

17:                                               ; preds = %6
  %18 = load i32, ptr %8, align 4, !tbaa !8
  %19 = load ptr, ptr %7, align 8, !tbaa !18
  %20 = getelementptr inbounds nuw %struct.Codebook, ptr %19, i32 0, i32 11
  %21 = load ptr, ptr %20, align 8, !tbaa !38
  %22 = load i32, ptr %9, align 4, !tbaa !8
  %23 = sext i32 %22 to i64
  %24 = getelementptr inbounds i32, ptr %21, i64 %23
  store i32 %18, ptr %24, align 4, !tbaa !8
  br label %46

25:                                               ; preds = %6
  %26 = load i32, ptr %8, align 4, !tbaa !8
  %27 = load ptr, ptr %7, align 8, !tbaa !18
  %28 = getelementptr inbounds nuw %struct.Codebook, ptr %27, i32 0, i32 11
  %29 = load ptr, ptr %28, align 8, !tbaa !38
  %30 = load i32, ptr %10, align 4, !tbaa !8
  %31 = sext i32 %30 to i64
  %32 = getelementptr inbounds i32, ptr %29, i64 %31
  store i32 %26, ptr %32, align 4, !tbaa !8
  %33 = load i32, ptr %11, align 4, !tbaa !8
  %34 = trunc i32 %33 to i8
  %35 = load ptr, ptr %7, align 8, !tbaa !18
  %36 = getelementptr inbounds nuw %struct.Codebook, ptr %35, i32 0, i32 2
  %37 = load ptr, ptr %36, align 8, !tbaa !39
  %38 = load i32, ptr %10, align 4, !tbaa !8
  %39 = sext i32 %38 to i64
  %40 = getelementptr inbounds i8, ptr %37, i64 %39
  store i8 %34, ptr %40, align 1, !tbaa !30
  %41 = load i32, ptr %9, align 4, !tbaa !8
  %42 = load ptr, ptr %12, align 8, !tbaa !33
  %43 = load i32, ptr %10, align 4, !tbaa !8
  %44 = sext i32 %43 to i64
  %45 = getelementptr inbounds i32, ptr %42, i64 %44
  store i32 %41, ptr %45, align 4, !tbaa !8
  br label %46

46:                                               ; preds = %25, %17
  ret void
}

; Function Attrs: nounwind uwtable
define i32 @compute_codewords(ptr noundef %0, ptr noundef %1, i32 noundef %2, ptr noundef %3) #0 {
  %5 = alloca i32, align 4
  %6 = alloca ptr, align 8
  %7 = alloca ptr, align 8
  %8 = alloca i32, align 4
  %9 = alloca ptr, align 8
  %10 = alloca i32, align 4
  %11 = alloca i32, align 4
  %12 = alloca i32, align 4
  %13 = alloca [32 x i32], align 16
  %14 = alloca i32, align 4
  %15 = alloca i32, align 4
  %16 = alloca i32, align 4
  %17 = alloca i32, align 4
  store ptr %0, ptr %6, align 8, !tbaa !18
  store ptr %1, ptr %7, align 8, !tbaa !19
  store i32 %2, ptr %8, align 4, !tbaa !8
  store ptr %3, ptr %9, align 8, !tbaa !33
  call void @llvm.lifetime.start.p0(i64 4, ptr %10) #11
  call void @llvm.lifetime.start.p0(i64 4, ptr %11) #11
  call void @llvm.lifetime.start.p0(i64 4, ptr %12) #11
  store i32 0, ptr %12, align 4, !tbaa !8
  call void @llvm.lifetime.start.p0(i64 128, ptr %13) #11
  %18 = getelementptr inbounds [32 x i32], ptr %13, i64 0, i64 0
  call void @llvm.memset.p0.i64(ptr align 16 %18, i8 0, i64 128, i1 false)
  store i32 0, ptr %11, align 4, !tbaa !8
  br label %19

19:                                               ; preds = %33, %4
  %20 = load i32, ptr %11, align 4, !tbaa !8
  %21 = load i32, ptr %8, align 4, !tbaa !8
  %22 = icmp slt i32 %20, %21
  br i1 %22, label %23, label %36

23:                                               ; preds = %19
  %24 = load ptr, ptr %7, align 8, !tbaa !19
  %25 = load i32, ptr %11, align 4, !tbaa !8
  %26 = sext i32 %25 to i64
  %27 = getelementptr inbounds i8, ptr %24, i64 %26
  %28 = load i8, ptr %27, align 1, !tbaa !30
  %29 = zext i8 %28 to i32
  %30 = icmp slt i32 %29, 255
  br i1 %30, label %31, label %32

31:                                               ; preds = %23
  br label %36

32:                                               ; preds = %23
  br label %33

33:                                               ; preds = %32
  %34 = load i32, ptr %11, align 4, !tbaa !8
  %35 = add nsw i32 %34, 1
  store i32 %35, ptr %11, align 4, !tbaa !8
  br label %19, !llvm.loop !40

36:                                               ; preds = %31, %19
  %37 = load i32, ptr %11, align 4, !tbaa !8
  %38 = load i32, ptr %8, align 4, !tbaa !8
  %39 = icmp eq i32 %37, %38
  br i1 %39, label %40, label %41

40:                                               ; preds = %36
  store i32 1, ptr %5, align 4
  store i32 1, ptr %14, align 4
  br label %170

41:                                               ; preds = %36
  %42 = load ptr, ptr %6, align 8, !tbaa !18
  %43 = load i32, ptr %11, align 4, !tbaa !8
  %44 = load i32, ptr %12, align 4, !tbaa !8
  %45 = add nsw i32 %44, 1
  store i32 %45, ptr %12, align 4, !tbaa !8
  %46 = load ptr, ptr %7, align 8, !tbaa !19
  %47 = load i32, ptr %11, align 4, !tbaa !8
  %48 = sext i32 %47 to i64
  %49 = getelementptr inbounds i8, ptr %46, i64 %48
  %50 = load i8, ptr %49, align 1, !tbaa !30
  %51 = zext i8 %50 to i32
  %52 = load ptr, ptr %9, align 8, !tbaa !33
  call void @add_entry(ptr noundef %42, i32 noundef 0, i32 noundef %43, i32 noundef %44, i32 noundef %51, ptr noundef %52)
  store i32 1, ptr %10, align 4, !tbaa !8
  br label %53

53:                                               ; preds = %69, %41
  %54 = load i32, ptr %10, align 4, !tbaa !8
  %55 = load ptr, ptr %7, align 8, !tbaa !19
  %56 = load i32, ptr %11, align 4, !tbaa !8
  %57 = sext i32 %56 to i64
  %58 = getelementptr inbounds i8, ptr %55, i64 %57
  %59 = load i8, ptr %58, align 1, !tbaa !30
  %60 = zext i8 %59 to i32
  %61 = icmp sle i32 %54, %60
  br i1 %61, label %62, label %72

62:                                               ; preds = %53
  %63 = load i32, ptr %10, align 4, !tbaa !8
  %64 = sub nsw i32 32, %63
  %65 = shl i32 1, %64
  %66 = load i32, ptr %10, align 4, !tbaa !8
  %67 = sext i32 %66 to i64
  %68 = getelementptr inbounds [32 x i32], ptr %13, i64 0, i64 %67
  store i32 %65, ptr %68, align 4, !tbaa !8
  br label %69

69:                                               ; preds = %62
  %70 = load i32, ptr %10, align 4, !tbaa !8
  %71 = add nsw i32 %70, 1
  store i32 %71, ptr %10, align 4, !tbaa !8
  br label %53, !llvm.loop !41

72:                                               ; preds = %53
  %73 = load i32, ptr %11, align 4, !tbaa !8
  %74 = add nsw i32 %73, 1
  store i32 %74, ptr %10, align 4, !tbaa !8
  br label %75

75:                                               ; preds = %166, %72
  %76 = load i32, ptr %10, align 4, !tbaa !8
  %77 = load i32, ptr %8, align 4, !tbaa !8
  %78 = icmp slt i32 %76, %77
  br i1 %78, label %79, label %169

79:                                               ; preds = %75
  call void @llvm.lifetime.start.p0(i64 4, ptr %15) #11
  call void @llvm.lifetime.start.p0(i64 4, ptr %16) #11
  %80 = load ptr, ptr %7, align 8, !tbaa !19
  %81 = load i32, ptr %10, align 4, !tbaa !8
  %82 = sext i32 %81 to i64
  %83 = getelementptr inbounds i8, ptr %80, i64 %82
  %84 = load i8, ptr %83, align 1, !tbaa !30
  %85 = zext i8 %84 to i32
  store i32 %85, ptr %16, align 4, !tbaa !8
  call void @llvm.lifetime.start.p0(i64 4, ptr %17) #11
  %86 = load i32, ptr %16, align 4, !tbaa !8
  %87 = icmp eq i32 %86, 255
  br i1 %87, label %88, label %89

88:                                               ; preds = %79
  store i32 10, ptr %14, align 4
  br label %163

89:                                               ; preds = %79
  br label %90

90:                                               ; preds = %102, %89
  %91 = load i32, ptr %16, align 4, !tbaa !8
  %92 = icmp sgt i32 %91, 0
  br i1 %92, label %93, label %100

93:                                               ; preds = %90
  %94 = load i32, ptr %16, align 4, !tbaa !8
  %95 = sext i32 %94 to i64
  %96 = getelementptr inbounds [32 x i32], ptr %13, i64 0, i64 %95
  %97 = load i32, ptr %96, align 4, !tbaa !8
  %98 = icmp ne i32 %97, 0
  %99 = xor i1 %98, true
  br label %100

100:                                              ; preds = %93, %90
  %101 = phi i1 [ false, %90 ], [ %99, %93 ]
  br i1 %101, label %102, label %105

102:                                              ; preds = %100
  %103 = load i32, ptr %16, align 4, !tbaa !8
  %104 = add nsw i32 %103, -1
  store i32 %104, ptr %16, align 4, !tbaa !8
  br label %90, !llvm.loop !42

105:                                              ; preds = %100
  %106 = load i32, ptr %16, align 4, !tbaa !8
  %107 = icmp eq i32 %106, 0
  br i1 %107, label %108, label %109

108:                                              ; preds = %105
  store i32 0, ptr %5, align 4
  store i32 1, ptr %14, align 4
  br label %163

109:                                              ; preds = %105
  %110 = load i32, ptr %16, align 4, !tbaa !8
  %111 = sext i32 %110 to i64
  %112 = getelementptr inbounds [32 x i32], ptr %13, i64 0, i64 %111
  %113 = load i32, ptr %112, align 4, !tbaa !8
  store i32 %113, ptr %15, align 4, !tbaa !8
  %114 = load i32, ptr %16, align 4, !tbaa !8
  %115 = sext i32 %114 to i64
  %116 = getelementptr inbounds [32 x i32], ptr %13, i64 0, i64 %115
  store i32 0, ptr %116, align 4, !tbaa !8
  %117 = load ptr, ptr %6, align 8, !tbaa !18
  %118 = load i32, ptr %15, align 4, !tbaa !8
  %119 = call i32 @bit_reverse(i32 noundef %118)
  %120 = load i32, ptr %10, align 4, !tbaa !8
  %121 = load i32, ptr %12, align 4, !tbaa !8
  %122 = add nsw i32 %121, 1
  store i32 %122, ptr %12, align 4, !tbaa !8
  %123 = load ptr, ptr %7, align 8, !tbaa !19
  %124 = load i32, ptr %10, align 4, !tbaa !8
  %125 = sext i32 %124 to i64
  %126 = getelementptr inbounds i8, ptr %123, i64 %125
  %127 = load i8, ptr %126, align 1, !tbaa !30
  %128 = zext i8 %127 to i32
  %129 = load ptr, ptr %9, align 8, !tbaa !33
  call void @add_entry(ptr noundef %117, i32 noundef %119, i32 noundef %120, i32 noundef %121, i32 noundef %128, ptr noundef %129)
  %130 = load i32, ptr %16, align 4, !tbaa !8
  %131 = load ptr, ptr %7, align 8, !tbaa !19
  %132 = load i32, ptr %10, align 4, !tbaa !8
  %133 = sext i32 %132 to i64
  %134 = getelementptr inbounds i8, ptr %131, i64 %133
  %135 = load i8, ptr %134, align 1, !tbaa !30
  %136 = zext i8 %135 to i32
  %137 = icmp ne i32 %130, %136
  br i1 %137, label %138, label %162

138:                                              ; preds = %109
  %139 = load ptr, ptr %7, align 8, !tbaa !19
  %140 = load i32, ptr %10, align 4, !tbaa !8
  %141 = sext i32 %140 to i64
  %142 = getelementptr inbounds i8, ptr %139, i64 %141
  %143 = load i8, ptr %142, align 1, !tbaa !30
  %144 = zext i8 %143 to i32
  store i32 %144, ptr %17, align 4, !tbaa !8
  br label %145

145:                                              ; preds = %158, %138
  %146 = load i32, ptr %17, align 4, !tbaa !8
  %147 = load i32, ptr %16, align 4, !tbaa !8
  %148 = icmp sgt i32 %146, %147
  br i1 %148, label %149, label %161

149:                                              ; preds = %145
  %150 = load i32, ptr %15, align 4, !tbaa !8
  %151 = load i32, ptr %17, align 4, !tbaa !8
  %152 = sub nsw i32 32, %151
  %153 = shl i32 1, %152
  %154 = add i32 %150, %153
  %155 = load i32, ptr %17, align 4, !tbaa !8
  %156 = sext i32 %155 to i64
  %157 = getelementptr inbounds [32 x i32], ptr %13, i64 0, i64 %156
  store i32 %154, ptr %157, align 4, !tbaa !8
  br label %158

158:                                              ; preds = %149
  %159 = load i32, ptr %17, align 4, !tbaa !8
  %160 = add nsw i32 %159, -1
  store i32 %160, ptr %17, align 4, !tbaa !8
  br label %145, !llvm.loop !43

161:                                              ; preds = %145
  br label %162

162:                                              ; preds = %161, %109
  store i32 0, ptr %14, align 4
  br label %163

163:                                              ; preds = %162, %108, %88
  call void @llvm.lifetime.end.p0(i64 4, ptr %17) #11
  call void @llvm.lifetime.end.p0(i64 4, ptr %16) #11
  call void @llvm.lifetime.end.p0(i64 4, ptr %15) #11
  %164 = load i32, ptr %14, align 4
  switch i32 %164, label %170 [
    i32 0, label %165
    i32 10, label %166
  ]

165:                                              ; preds = %163
  br label %166

166:                                              ; preds = %165, %163
  %167 = load i32, ptr %10, align 4, !tbaa !8
  %168 = add nsw i32 %167, 1
  store i32 %168, ptr %10, align 4, !tbaa !8
  br label %75, !llvm.loop !44

169:                                              ; preds = %75
  store i32 1, ptr %5, align 4
  store i32 1, ptr %14, align 4
  br label %170

170:                                              ; preds = %169, %163, %40
  call void @llvm.lifetime.end.p0(i64 128, ptr %13) #11
  call void @llvm.lifetime.end.p0(i64 4, ptr %12) #11
  call void @llvm.lifetime.end.p0(i64 4, ptr %11) #11
  call void @llvm.lifetime.end.p0(i64 4, ptr %10) #11
  %171 = load i32, ptr %5, align 4
  ret i32 %171
}