; Function Attrs: nofree norecurse nosync nounwind memory(write, argmem: readwrite, inaccessiblemem: none) uwtable
define range(i32 0, 2) i32 @compute_codewords(ptr noundef readonly captures(none) %0, ptr noundef readonly captures(none) %1, i32 noundef %2, ptr noundef writeonly captures(none) %3) local_unnamed_addr #13 {
  %5 = alloca [32 x i32], align 16
  call void @llvm.lifetime.start.p0(i64 128, ptr nonnull %5) #35
  call void @llvm.memset.p0.i64(ptr noundef nonnull align 16 dereferenceable(128) %5, i8 0, i64 128, i1 false)
  %6 = icmp sgt i32 %2, 0
  br i1 %6, label %.lr.ph.preheader, label %._crit_edge

.lr.ph.preheader:                                 ; preds = %4
  %wide.trip.count = zext nneg i32 %2 to i64
  br label %.lr.ph

.lr.ph:                                           ; preds = %.lr.ph.preheader, %9
  %indvars.iv = phi i64 [ 0, %.lr.ph.preheader ], [ %indvars.iv.next, %9 ]
  %7 = getelementptr inbounds nuw i8, ptr %1, i64 %indvars.iv
  %8 = load i8, ptr %7, align 1, !tbaa !23
  %.not = icmp eq i8 %8, -1
  br i1 %.not, label %9, label %._crit_edge.loopexit

9:                                                ; preds = %.lr.ph
  %indvars.iv.next = add nuw nsw i64 %indvars.iv, 1
  %exitcond.not = icmp eq i64 %indvars.iv.next, %wide.trip.count
  br i1 %exitcond.not, label %.loopexit72, label %.lr.ph, !llvm.loop !31

._crit_edge.loopexit:                             ; preds = %.lr.ph
  %10 = trunc nuw nsw i64 %indvars.iv to i32
  br label %._crit_edge

._crit_edge:                                      ; preds = %._crit_edge.loopexit, %4
  %.056.lcssa = phi i32 [ 0, %4 ], [ %10, %._crit_edge.loopexit ]
  %11 = icmp eq i32 %.056.lcssa, %2
  br i1 %11, label %.loopexit72, label %12

12:                                               ; preds = %._crit_edge
  %13 = zext nneg i32 %.056.lcssa to i64
  %14 = getelementptr inbounds nuw i8, ptr %1, i64 %13
  %15 = getelementptr inbounds nuw i8, ptr %0, i64 27
  %16 = load i8, ptr %15, align 1, !tbaa !24
  %.not.i = icmp eq i8 %16, 0
  %17 = getelementptr inbounds nuw i8, ptr %0, i64 40
  %18 = load ptr, ptr %17, align 8, !tbaa !29
  br i1 %.not.i, label %19, label %21

19:                                               ; preds = %12
  %20 = getelementptr inbounds nuw i32, ptr %18, i64 %13
  store i32 0, ptr %20, align 4, !tbaa !21
  br label %add_entry.exit

21:                                               ; preds = %12
  %22 = load i8, ptr %14, align 1, !tbaa !23
  store i32 0, ptr %18, align 4, !tbaa !21
  %23 = getelementptr inbounds nuw i8, ptr %0, i64 8
  %24 = load ptr, ptr %23, align 8, !tbaa !30
  store i8 %22, ptr %24, align 1, !tbaa !23
  store i32 %.056.lcssa, ptr %3, align 4, !tbaa !21
  br label %add_entry.exit

add_entry.exit:                                   ; preds = %19, %21
  %25 = load i8, ptr %14, align 1, !tbaa !23
  %.not6279 = icmp eq i8 %25, 0
  br i1 %.not6279, label %.preheader73, label %.lr.ph81.preheader

.lr.ph81.preheader:                               ; preds = %add_entry.exit
  %26 = zext i8 %25 to i64
  br label %.lr.ph81

.preheader73:                                     ; preds = %.lr.ph81, %add_entry.exit
  %.15887 = add nuw nsw i32 %.056.lcssa, 1
  %27 = icmp slt i32 %.15887, %2
  br i1 %27, label %.lr.ph91, label %.loopexit72

.lr.ph91:                                         ; preds = %.preheader73
  %28 = getelementptr inbounds nuw i8, ptr %0, i64 8
  %29 = zext i32 %.15887 to i64
  br label %34

.lr.ph81:                                         ; preds = %.lr.ph81.preheader, %.lr.ph81
  %indvars.iv95 = phi i64 [ 1, %.lr.ph81.preheader ], [ %indvars.iv.next96, %.lr.ph81 ]
  %30 = trunc i64 %indvars.iv95 to i32
  %31 = sub i32 32, %30
  %32 = shl nuw i32 1, %31
  %33 = getelementptr inbounds nuw [32 x i32], ptr %5, i64 0, i64 %indvars.iv95
  store i32 %32, ptr %33, align 4, !tbaa !21
  %indvars.iv.next96 = add nuw nsw i64 %indvars.iv95, 1
  %exitcond99.not = icmp eq i64 %indvars.iv95, %26
  br i1 %exitcond99.not, label %.preheader73, label %.lr.ph81, !llvm.loop !32

34:                                               ; preds = %.lr.ph91, %.loopexit
  %indvars.iv100 = phi i64 [ %29, %.lr.ph91 ], [ %indvars.iv.next101, %.loopexit ]
  %.05488 = phi i32 [ 1, %.lr.ph91 ], [ %.155.ph, %.loopexit ]
  %35 = getelementptr inbounds nuw i8, ptr %1, i64 %indvars.iv100
  %36 = load i8, ptr %35, align 1, !tbaa !23
  switch i8 %36, label %.lr.ph84.preheader [
    i8 -1, label %.loopexit
    i8 0, label %.loopexit72
  ]

.lr.ph84.preheader:                               ; preds = %34
  %37 = zext i8 %36 to i32
  br label %.lr.ph84

.lr.ph84:                                         ; preds = %.lr.ph84.preheader, %41
  %.05183 = phi i32 [ %42, %41 ], [ %37, %.lr.ph84.preheader ]
  %38 = zext nneg i32 %.05183 to i64
  %39 = getelementptr inbounds nuw [32 x i32], ptr %5, i64 0, i64 %38
  %40 = load i32, ptr %39, align 4, !tbaa !21
  %.not63 = icmp eq i32 %40, 0
  br i1 %.not63, label %41, label %.critedge

41:                                               ; preds = %.lr.ph84
  %42 = add nsw i32 %.05183, -1
  %.not70 = icmp eq i32 %42, 0
  br i1 %.not70, label %.loopexit72, label %.lr.ph84, !llvm.loop !33

.critedge:                                        ; preds = %.lr.ph84
  %43 = getelementptr inbounds nuw [32 x i32], ptr %5, i64 0, i64 %38
  store i32 0, ptr %43, align 4, !tbaa !21
  %44 = tail call noundef i32 @llvm.bitreverse.i32(i32 %40)
  %45 = add nsw i32 %.05488, 1
  %46 = load i8, ptr %15, align 1, !tbaa !24
  %.not.i65 = icmp eq i8 %46, 0
  %47 = load ptr, ptr %17, align 8, !tbaa !29
  br i1 %.not.i65, label %48, label %50

48:                                               ; preds = %.critedge
  %49 = getelementptr inbounds nuw i32, ptr %47, i64 %indvars.iv100
  store i32 %44, ptr %49, align 4, !tbaa !21
  br label %add_entry.exit66

50:                                               ; preds = %.critedge
  %51 = sext i32 %.05488 to i64
  %52 = getelementptr inbounds i32, ptr %47, i64 %51
  store i32 %44, ptr %52, align 4, !tbaa !21
  %53 = load ptr, ptr %28, align 8, !tbaa !30
  %54 = getelementptr inbounds i8, ptr %53, i64 %51
  store i8 %36, ptr %54, align 1, !tbaa !23
  %55 = getelementptr inbounds i32, ptr %3, i64 %51
  %56 = trunc nuw i64 %indvars.iv100 to i32
  store i32 %56, ptr %55, align 4, !tbaa !21
  br label %add_entry.exit66

add_entry.exit66:                                 ; preds = %48, %50
  %57 = load i8, ptr %35, align 1, !tbaa !23
  %58 = zext i8 %57 to i32
  %59 = icmp slt i32 %.05183, %58
  br i1 %59, label %.lr.ph86, label %.loopexit

.lr.ph86:                                         ; preds = %add_entry.exit66, %.lr.ph86
  %.085 = phi i32 [ %65, %.lr.ph86 ], [ %58, %add_entry.exit66 ]
  %60 = sub nsw i32 32, %.085
  %61 = shl nuw nsw i32 1, %60
  %62 = add i32 %61, %40
  %63 = zext nneg i32 %.085 to i64
  %64 = getelementptr inbounds nuw [32 x i32], ptr %5, i64 0, i64 %63
  store i32 %62, ptr %64, align 4, !tbaa !21
  %65 = add nsw i32 %.085, -1
  %66 = icmp sgt i32 %65, %.05183
  br i1 %66, label %.lr.ph86, label %.loopexit, !llvm.loop !34

.loopexit:                                        ; preds = %.lr.ph86, %34, %add_entry.exit66
  %.155.ph = phi i32 [ %45, %add_entry.exit66 ], [ %.05488, %34 ], [ %45, %.lr.ph86 ]
  %indvars.iv.next101 = add nuw nsw i64 %indvars.iv100, 1
  %67 = trunc nuw i64 %indvars.iv.next101 to i32
  %68 = icmp sgt i32 %2, %67
  br i1 %68, label %34, label %.loopexit72, !llvm.loop !35

.loopexit72:                                      ; preds = %9, %.loopexit, %34, %41, %.preheader73, %._crit_edge
  %.052 = phi i32 [ 1, %._crit_edge ], [ 1, %.preheader73 ], [ 0, %41 ], [ 1, %.loopexit ], [ 0, %34 ], [ 1, %9 ]
  call void @llvm.lifetime.end.p0(i64 128, ptr nonnull %5) #35
  ret i32 %.052
}